; Function Attrs: mustprogress nofree norecurse nosync nounwind null_pointer_is_valid sspstrong willreturn memory(read, inaccessiblemem: none) uwtable
define noundef nonnull ptr @fvalue_type_name(ptr noundef readonly captures(none) %0) local_unnamed_addr #4 {
  %2 = load ptr, ptr %0, align 8
  %3 = load i32, ptr %2, align 8
  %4 = zext i32 %3 to i64
  %5 = getelementptr [48 x ptr], ptr @type_list, i64 0, i64 %4
  %6 = load ptr, ptr %5, align 8
  %7 = load i32, ptr %6, align 8
  %8 = icmp ult i32 %7, 48
  br i1 %8, label %switch.lookup, label %ftype_name.exit

switch.lookup:                                    ; preds = %1
  %9 = zext nneg i32 %7 to i64
  %switch.gep = getelementptr inbounds nuw [48 x ptr], ptr @switch.table.fvalue_type_name, i64 0, i64 %9
  %switch.load = load ptr, ptr %switch.gep, align 8
  br label %ftype_name.exit

ftype_name.exit:                                  ; preds = %switch.lookup, %1
  %.0.i = phi ptr [ @.str.3, %1 ], [ %switch.load, %switch.lookup ]
  ret ptr %.0.i
}